; Function Attrs: nounwind uwtable
define ptr @l_Array_zipWithAux___at_Lean_Elab_Command_elabCommand_go___spec__14___lambda__1(ptr noundef %0, ptr noundef %1, ptr noundef %2, ptr noundef %3) local_unnamed_addr #0 {
  %5 = ptrtoint ptr %3 to i64
  %6 = and i64 %5, 1
  %.not.i29 = icmp eq i64 %6, 0
  br i1 %.not.i29, label %10, label %7

7:                                                ; preds = %4
  %8 = lshr i64 %5, 1
  %9 = trunc i64 %8 to i32
  br label %lean_obj_tag.exit

10:                                               ; preds = %4
  %11 = getelementptr i8, ptr %3, i64 4
  %.val.i = load i32, ptr %11, align 4
  %12 = lshr i32 %.val.i, 24
  br label %lean_obj_tag.exit

lean_obj_tag.exit:                                ; preds = %7, %10
  %.0.i = phi i32 [ %9, %7 ], [ %12, %10 ]
  %13 = icmp eq i32 %.0.i, 0
  br i1 %13, label %14, label %29

14:                                               ; preds = %lean_obj_tag.exit
  %15 = load ptr, ptr @l_Array_zipWithAux___at_Lean_Elab_Command_elabCommand_go___spec__14___lambda__1___closed__3, align 8, !tbaa !9
  %16 = tail call ptr @l_Lean_Name_toString(ptr noundef %15, i8 noundef zeroext 1, ptr noundef %0) #6
  %17 = load ptr, ptr @l_Lean_Language_Snapshot_Diagnostics_empty, align 8, !tbaa !9
  tail call void @lean_inc_heartbeat() #6
  %18 = tail call noalias ptr @mi_malloc_small(i64 noundef 48) #6
  %19 = icmp eq ptr %18, null
  br i1 %19, label %20, label %lean_alloc_ctor.exit

20:                                               ; preds = %14
  tail call void @lean_internal_panic_out_of_memory() #7
  unreachable

lean_alloc_ctor.exit:                             ; preds = %14
  %21 = getelementptr inbounds nuw i8, ptr %18, i64 4
  %22 = getelementptr inbounds nuw i8, ptr %18, i64 40
  store i64 0, ptr %22, align 8, !tbaa !11
  store i32 1, ptr %18, align 4, !tbaa !4
  store i32 262192, ptr %21, align 4
  %23 = getelementptr inbounds nuw i8, ptr %18, i64 8
  store ptr %16, ptr %23, align 8, !tbaa !9
  %24 = getelementptr inbounds nuw i8, ptr %18, i64 16
  store ptr %17, ptr %24, align 8, !tbaa !9
  %25 = getelementptr inbounds nuw i8, ptr %18, i64 24
  store ptr %1, ptr %25, align 8, !tbaa !9
  %26 = getelementptr inbounds nuw i8, ptr %18, i64 32
  store ptr %2, ptr %26, align 8, !tbaa !9
  %27 = load ptr, ptr @l_Lean_Language_instTypeNameSnapshotLeaf, align 8, !tbaa !9
  %28 = tail call ptr @l_Lean_Language_DynamicSnapshot_ofTyped___at_Lean_Language_instInhabitedDynamicSnapshot___spec__1(ptr noundef %27, ptr noundef nonnull %18) #6
  br label %lean_inc.exit

29:                                               ; preds = %lean_obj_tag.exit
  %30 = ptrtoint ptr %2 to i64
  %31 = and i64 %30, 1
  %.not = icmp eq i64 %31, 0
  br i1 %.not, label %32, label %lean_dec.exit24

32:                                               ; preds = %29
  %33 = load i32, ptr %2, align 4, !tbaa !4
  %34 = icmp sgt i32 %33, 1
  br i1 %34, label %35, label %37, !prof !13

35:                                               ; preds = %32
  %36 = add nsw i32 %33, -1
  store i32 %36, ptr %2, align 4, !tbaa !4
  br label %lean_dec.exit24

37:                                               ; preds = %32
  %.not.i = icmp eq i32 %33, 0
  br i1 %.not.i, label %lean_dec.exit24, label %38

38:                                               ; preds = %37
  tail call void @lean_dec_ref_cold(ptr noundef nonnull %2) #6
  br label %lean_dec.exit24

lean_dec.exit24:                                  ; preds = %38, %37, %35, %29
  %39 = ptrtoint ptr %1 to i64
  %40 = and i64 %39, 1
  %.not32 = icmp eq i64 %40, 0
  br i1 %.not32, label %41, label %lean_dec.exit23

41:                                               ; preds = %lean_dec.exit24
  %42 = load i32, ptr %1, align 4, !tbaa !4
  %43 = icmp sgt i32 %42, 1
  br i1 %43, label %44, label %46, !prof !13

44:                                               ; preds = %41
  %45 = add nsw i32 %42, -1
  store i32 %45, ptr %1, align 4, !tbaa !4
  br label %lean_dec.exit23

46:                                               ; preds = %41
  %.not.i25 = icmp eq i32 %42, 0
  br i1 %.not.i25, label %lean_dec.exit23, label %47

47:                                               ; preds = %46
  tail call void @lean_dec_ref_cold(ptr noundef nonnull %1) #6
  br label %lean_dec.exit23

lean_dec.exit23:                                  ; preds = %47, %46, %44, %lean_dec.exit24
  %48 = ptrtoint ptr %0 to i64
  %49 = and i64 %48, 1
  %.not33 = icmp eq i64 %49, 0
  br i1 %.not33, label %50, label %lean_dec.exit

50:                                               ; preds = %lean_dec.exit23
  %51 = load i32, ptr %0, align 4, !tbaa !4
  %52 = icmp sgt i32 %51, 1
  br i1 %52, label %53, label %55, !prof !13

53:                                               ; preds = %50
  %54 = add nsw i32 %51, -1
  store i32 %54, ptr %0, align 4, !tbaa !4
  br label %lean_dec.exit

55:                                               ; preds = %50
  %.not.i27 = icmp eq i32 %51, 0
  br i1 %.not.i27, label %lean_dec.exit, label %56

56:                                               ; preds = %55
  tail call void @lean_dec_ref_cold(ptr noundef nonnull %0) #6
  br label %lean_dec.exit

lean_dec.exit:                                    ; preds = %56, %55, %53, %lean_dec.exit23
  %57 = getelementptr inbounds nuw i8, ptr %3, i64 8
  %58 = load ptr, ptr %57, align 8, !tbaa !9
  %59 = ptrtoint ptr %58 to i64
  %60 = and i64 %59, 1
  %.not34 = icmp eq i64 %60, 0
  br i1 %.not34, label %61, label %lean_inc.exit

61:                                               ; preds = %lean_dec.exit
  %.val.i30 = load i32, ptr %58, align 4, !tbaa !4
  %62 = icmp sgt i32 %.val.i30, 0
  br i1 %62, label %63, label %65, !prof !13

63:                                               ; preds = %61
  %64 = add nuw i32 %.val.i30, 1
  store i32 %64, ptr %58, align 4, !tbaa !4
  br label %lean_inc.exit

65:                                               ; preds = %61
  %.not.i31 = icmp eq i32 %.val.i30, 0
  br i1 %.not.i31, label %lean_inc.exit, label %66

66:                                               ; preds = %65
  tail call void @lean_inc_ref_cold(ptr noundef nonnull %58) #6
  br label %lean_inc.exit

lean_inc.exit:                                    ; preds = %lean_dec.exit, %63, %65, %66, %lean_alloc_ctor.exit
  %.0 = phi ptr [ %28, %lean_alloc_ctor.exit ], [ %58, %66 ], [ %58, %65 ], [ %58, %63 ], [ %58, %lean_dec.exit ]
  ret ptr %.0
}